target datalayout = "e-m:e-p270:32:32-p271:32:32-p272:64:64-i64:64-i128:128-f80:128-n8:16:32:64-S128"
target triple = "x86_64-pc-linux-gnu"

; Function Attrs: nounwind uwtable
define void @Ptngc_comp_canonical_dict(ptr noundef %0, ptr noundef %1) #0 {
  %3 = alloca ptr, align 8
  %4 = alloca ptr, align 8
  %5 = alloca i32, align 4
  store ptr %0, ptr %3, align 8
  store ptr %1, ptr %4, align 8
  store i32 0, ptr %5, align 4
  br label %6

6:                                                ; preds = %15, %2
  %7 = load i32, ptr %5, align 4
  %8 = icmp slt i32 %7, 131076
  br i1 %8, label %9, label %18

9:                                                ; preds = %6
  %10 = load i32, ptr %5, align 4
  %11 = load ptr, ptr %3, align 8
  %12 = load i32, ptr %5, align 4
  %13 = sext i32 %12 to i64
  %14 = getelementptr inbounds i32, ptr %11, i64 %13
  store i32 %10, ptr %14, align 4
  br label %15

15:                                               ; preds = %9
  %16 = load i32, ptr %5, align 4
  %17 = add nsw i32 %16, 1
  store i32 %17, ptr %5, align 4
  br label %6, !llvm.loop !4

18:                                               ; preds = %6
  %19 = load ptr, ptr %4, align 8
  store i32 131076, ptr %19, align 4
  ret void
}

; Function Attrs: nounwind uwtable
define void @Ptngc_comp_make_dict_hist(ptr noundef %0, i32 noundef %1, ptr noundef %2, ptr noundef %3, ptr noundef %4) #0 {
  %6 = alloca ptr, align 8
  %7 = alloca i32, align 4
  %8 = alloca ptr, align 8
  %9 = alloca ptr, align 8
  %10 = alloca ptr, align 8
  %11 = alloca i32, align 4
  %12 = alloca i32, align 4
  store ptr %0, ptr %6, align 8
  store i32 %1, ptr %7, align 4
  store ptr %2, ptr %8, align 8
  store ptr %3, ptr %9, align 8
  store ptr %4, ptr %10, align 8
  store i32 0, ptr %12, align 4
  %13 = load ptr, ptr %10, align 8
  call void @llvm.memset.p0.i64(ptr align 4 %13, i8 0, i64 524304, i1 false)
  store i32 0, ptr %11, align 4
  br label %14

14:                                               ; preds = %29, %5
  %15 = load i32, ptr %11, align 4
  %16 = load i32, ptr %7, align 4
  %17 = icmp slt i32 %15, %16
  br i1 %17, label %18, label %32

18:                                               ; preds = %14
  %19 = load ptr, ptr %10, align 8
  %20 = load ptr, ptr %6, align 8
  %21 = load i32, ptr %11, align 4
  %22 = sext i32 %21 to i64
  %23 = getelementptr inbounds i32, ptr %20, i64 %22
  %24 = load i32, ptr %23, align 4
  %25 = zext i32 %24 to i64
  %26 = getelementptr inbounds i32, ptr %19, i64 %25
  %27 = load i32, ptr %26, align 4
  %28 = add i32 %27, 1
  store i32 %28, ptr %26, align 4
  br label %29

29:                                               ; preds = %18
  %30 = load i32, ptr %11, align 4
  %31 = add nsw i32 %30, 1
  store i32 %31, ptr %11, align 4
  br label %14, !llvm.loop !6

32:                                               ; preds = %14
  store i32 0, ptr %11, align 4
  br label %33

33:                                               ; preds = %66, %32
  %34 = load i32, ptr %11, align 4
  %35 = icmp slt i32 %34, 131076
  br i1 %35, label %36, label %69

36:                                               ; preds = %33
  %37 = load ptr, ptr %10, align 8
  %38 = load i32, ptr %11, align 4
  %39 = sext i32 %38 to i64
  %40 = getelementptr inbounds i32, ptr %37, i64 %39
  %41 = load i32, ptr %40, align 4
  %42 = icmp ne i32 %41, 0
  br i1 %42, label %43, label %65

43:                                               ; preds = %36
  %44 = load ptr, ptr %10, align 8
  %45 = load i32, ptr %11, align 4
  %46 = sext i32 %45 to i64
  %47 = getelementptr inbounds i32, ptr %44, i64 %46
  %48 = load i32, ptr %47, align 4
  %49 = load ptr, ptr %10, align 8
  %50 = load i32, ptr %12, align 4
  %51 = sext i32 %50 to i64
  %52 = getelementptr inbounds i32, ptr %49, i64 %51
  store i32 %48, ptr %52, align 4
  %53 = load i32, ptr %11, align 4
  %54 = load ptr, ptr %8, align 8
  %55 = load i32, ptr %12, align 4
  %56 = sext i32 %55 to i64
  %57 = getelementptr inbounds i32, ptr %54, i64 %56
  store i32 %53, ptr %57, align 4
  %58 = load i32, ptr %12, align 4
  %59 = add nsw i32 %58, 1
  store i32 %59, ptr %12, align 4
  %60 = load i32, ptr %12, align 4
  %61 = load i32, ptr %7, align 4
  %62 = icmp eq i32 %60, %61
  br i1 %62, label %63, label %64

63:                                               ; preds = %43
  br label %69

64:                                               ; preds = %43
  br label %65

65:                                               ; preds = %64, %36
  br label %66

66:                                               ; preds = %65
  %67 = load i32, ptr %11, align 4
  %68 = add nsw i32 %67, 1
  store i32 %68, ptr %11, align 4
  br label %33, !llvm.loop !7

69:                                               ; preds = %63, %33
  %70 = load i32, ptr %12, align 4
  %71 = load ptr, ptr %9, align 8
  store i32 %70, ptr %71, align 4
  ret void
}

; Function Attrs: nocallback nofree nounwind willreturn memory(argmem: write)
declare void @llvm.memset.p0.i64(ptr nocapture writeonly, i8, i64, i1 immarg) #1


!llvm.module.flags = !{!0, !1, !2, !3}

!0 = !{i32 1, !"wchar_size", i32 4}
!1 = !{i32 8, !"PIC Level", i32 2}
!2 = !{i32 7, !"uwtable", i32 2}
!3 = !{i32 7, !"frame-pointer", i32 2}
!4 = distinct !{!4, !5}
!5 = !{!"llvm.loop.mustprogress"}
!6 = distinct !{!6, !5}
!7 = distinct !{!7, !5}
