; ModuleID = 'bench/gromacs/original/dict.c.ll'
source_filename = "bench/gromacs/original/dict.c.ll"
target datalayout = "e-m:e-p270:32:32-p271:32:32-p272:64:64-i64:64-i128:128-f80:128-n8:16:32:64-S128"
target triple = "x86_64-pc-linux-gnu"

; Function Attrs: nofree norecurse nosync nounwind memory(argmem: write) uwtable
define void @Ptngc_comp_canonical_dict(ptr noundef writeonly captures(none) %0, ptr noundef writeonly captures(none) %1) local_unnamed_addr #0 {
  br label %3

3:                                                ; preds = %2, %3
  %indvars.iv = phi i64 [ 0, %2 ], [ %indvars.iv.next, %3 ]
  %4 = getelementptr inbounds nuw i32, ptr %0, i64 %indvars.iv
  %5 = trunc nuw nsw i64 %indvars.iv to i32
  store i32 %5, ptr %4, align 4
  %indvars.iv.next = add nuw nsw i64 %indvars.iv, 1
  %exitcond.not = icmp eq i64 %indvars.iv.next, 131076
  br i1 %exitcond.not, label %6, label %3, !llvm.loop !4

6:                                                ; preds = %3
  store i32 131076, ptr %1, align 4
  ret void
}

; Function Attrs: nofree norecurse nosync nounwind memory(argmem: readwrite) uwtable
define void @Ptngc_comp_make_dict_hist(ptr noundef readonly captures(none) %0, i32 noundef %1, ptr noundef writeonly captures(none) %2, ptr noundef writeonly captures(none) %3, ptr noundef captures(none) initializes((0, 524304)) %4) local_unnamed_addr #1 {
  tail call void @llvm.memset.p0.i64(ptr noundef nonnull align 4 dereferenceable(524304) %4, i8 0, i64 524304, i1 false)
  %6 = icmp sgt i32 %1, 0
  br i1 %6, label %.lr.ph.preheader, label %.preheader.preheader

.lr.ph.preheader:                                 ; preds = %5
  %wide.trip.count = zext nneg i32 %1 to i64
  br label %.lr.ph

.lr.ph:                                           ; preds = %.lr.ph.preheader, %.lr.ph
  %indvars.iv = phi i64 [ 0, %.lr.ph.preheader ], [ %indvars.iv.next, %.lr.ph ]
  %7 = getelementptr inbounds nuw i32, ptr %0, i64 %indvars.iv
  %8 = load i32, ptr %7, align 4
  %9 = zext i32 %8 to i64
  %10 = getelementptr inbounds nuw i32, ptr %4, i64 %9
  %11 = load i32, ptr %10, align 4
  %12 = add i32 %11, 1
  store i32 %12, ptr %10, align 4
  %indvars.iv.next = add nuw nsw i64 %indvars.iv, 1
  %exitcond.not = icmp eq i64 %indvars.iv.next, %wide.trip.count
  br i1 %exitcond.not, label %.preheader.preheader, label %.lr.ph, !llvm.loop !6

.preheader.preheader:                             ; preds = %.lr.ph, %5
  br label %.preheader

.preheader:                                       ; preds = %.preheader.preheader, %22
  %indvars.iv32 = phi i64 [ %indvars.iv.next33, %22 ], [ 0, %.preheader.preheader ]
  %.030 = phi i32 [ %.2, %22 ], [ 0, %.preheader.preheader ]
  %13 = getelementptr inbounds nuw i32, ptr %4, i64 %indvars.iv32
  %14 = load i32, ptr %13, align 4
  %.not = icmp eq i32 %14, 0
  br i1 %.not, label %22, label %15

15:                                               ; preds = %.preheader
  %16 = sext i32 %.030 to i64
  %17 = getelementptr inbounds i32, ptr %4, i64 %16
  store i32 %14, ptr %17, align 4
  %18 = getelementptr inbounds i32, ptr %2, i64 %16
  %19 = trunc nuw nsw i64 %indvars.iv32 to i32
  store i32 %19, ptr %18, align 4
  %20 = add nsw i32 %.030, 1
  %21 = icmp eq i32 %20, %1
  br i1 %21, label %23, label %22

22:                                               ; preds = %.preheader, %15
  %.2 = phi i32 [ %20, %15 ], [ %.030, %.preheader ]
  %indvars.iv.next33 = add nuw nsw i64 %indvars.iv32, 1
  %exitcond35.not = icmp eq i64 %indvars.iv.next33, 131076
  br i1 %exitcond35.not, label %23, label %.preheader, !llvm.loop !7

23:                                               ; preds = %15, %22
  %.1 = phi i32 [ %1, %15 ], [ %.2, %22 ]
  store i32 %.1, ptr %3, align 4
  ret void
}

; Function Attrs: mustprogress nocallback nofree nounwind willreturn memory(argmem: write)
declare void @llvm.memset.p0.i64(ptr writeonly captures(none), i8, i64, i1 immarg) #2


!llvm.module.flags = !{!0, !1, !2, !3}

!0 = !{i32 1, !"wchar_size", i32 4}
!1 = !{i32 8, !"PIC Level", i32 2}
!2 = !{i32 7, !"uwtable", i32 2}
!3 = !{i32 7, !"frame-pointer", i32 2}
!4 = distinct !{!4, !5}
!5 = !{!"llvm.loop.mustprogress"}
!6 = distinct !{!6, !5}
!7 = distinct !{!7, !5}
